; ModuleID = '20/538.c'
source_filename = "20/538.c"
target datalayout = "e-m:e-p270:32:32-p271:32:32-p272:64:64-i64:64-f80:128-n8:16:32:64-S128"
target triple = "x86_64-pc-linux-gnu"

@.str = private unnamed_addr constant [5 x i8] c"%s%s\00", align 1
@.str.1 = private unnamed_addr constant [3 x i8] c"%c\00", align 1
@.str.2 = private unnamed_addr constant [7 x i8] c"%c%c%c\00", align 1
@.str.3 = private unnamed_addr constant [2 x i8] c"\0A\00", align 1

; Function Attrs: noinline nounwind uwtable
define dso_local void @main() #0 {
  %1 = alloca i32, align 4
  %2 = alloca i32, align 4
  %3 = alloca i32, align 4
  %4 = alloca i32, align 4
  %5 = alloca [20 x i8], align 16
  %6 = alloca [4 x i8], align 1
  br label %7

7:                                                ; preds = %94, %0
  %8 = getelementptr inbounds [20 x i8], [20 x i8]* %5, i64 0, i64 0
  %9 = getelementptr inbounds [4 x i8], [4 x i8]* %6, i64 0, i64 0
  %10 = call i32 (i8*, ...) @__isoc99_scanf(i8* getelementptr inbounds ([5 x i8], [5 x i8]* @.str, i64 0, i64 0), i8* %8, i8* %9)
  %11 = icmp ne i32 %10, -1
  br i1 %11, label %12, label %96

12:                                               ; preds = %7
  %13 = getelementptr inbounds [20 x i8], [20 x i8]* %5, i64 0, i64 0
  %14 = call i64 @strlen(i8* %13) #3
  %15 = trunc i64 %14 to i32
  store i32 %15, i32* %3, align 4
  %16 = load i32, i32* %3, align 4
  %17 = sub nsw i32 %16, 1
  store i32 %17, i32* %2, align 4
  %18 = load i32, i32* %3, align 4
  %19 = sub nsw i32 %18, 1
  %20 = sext i32 %19 to i64
  %21 = getelementptr inbounds [20 x i8], [20 x i8]* %5, i64 0, i64 %20
  %22 = load i8, i8* %21, align 1
  %23 = sext i8 %22 to i32
  store i32 %23, i32* %4, align 4
  %24 = load i32, i32* %3, align 4
  %25 = sub nsw i32 %24, 1
  store i32 %25, i32* %1, align 4
  br label %26

26:                                               ; preds = %48, %12
  %27 = load i32, i32* %1, align 4
  %28 = icmp sgt i32 %27, 0
  br i1 %28, label %29, label %51

29:                                               ; preds = %26
  %30 = load i32, i32* %1, align 4
  %31 = sub nsw i32 %30, 1
  %32 = sext i32 %31 to i64
  %33 = getelementptr inbounds [20 x i8], [20 x i8]* %5, i64 0, i64 %32
  %34 = load i8, i8* %33, align 1
  %35 = sext i8 %34 to i32
  %36 = load i32, i32* %4, align 4
  %37 = icmp sge i32 %35, %36
  br i1 %37, label %38, label %47

38:                                               ; preds = %29
  %39 = load i32, i32* %1, align 4
  %40 = sub nsw i32 %39, 1
  %41 = sext i32 %40 to i64
  %42 = getelementptr inbounds [20 x i8], [20 x i8]* %5, i64 0, i64 %41
  %43 = load i8, i8* %42, align 1
  %44 = sext i8 %43 to i32
  store i32 %44, i32* %4, align 4
  %45 = load i32, i32* %1, align 4
  %46 = sub nsw i32 %45, 1
  store i32 %46, i32* %2, align 4
  br label %47

47:                                               ; preds = %38, %29
  br label %48

48:                                               ; preds = %47
  %49 = load i32, i32* %1, align 4
  %50 = add nsw i32 %49, -1
  store i32 %50, i32* %1, align 4
  br label %26

51:                                               ; preds = %26
  store i32 0, i32* %1, align 4
  br label %52

52:                                               ; preds = %63, %51
  %53 = load i32, i32* %1, align 4
  %54 = load i32, i32* %2, align 4
  %55 = icmp sle i32 %53, %54
  br i1 %55, label %56, label %66

56:                                               ; preds = %52
  %57 = load i32, i32* %1, align 4
  %58 = sext i32 %57 to i64
  %59 = getelementptr inbounds [20 x i8], [20 x i8]* %5, i64 0, i64 %58
  %60 = load i8, i8* %59, align 1
  %61 = sext i8 %60 to i32
  %62 = call i32 (i8*, ...) @printf(i8* getelementptr inbounds ([3 x i8], [3 x i8]* @.str.1, i64 0, i64 0), i32 %61)
  br label %63

63:                                               ; preds = %56
  %64 = load i32, i32* %1, align 4
  %65 = add nsw i32 %64, 1
  store i32 %65, i32* %1, align 4
  br label %52

66:                                               ; preds = %52
  %67 = getelementptr inbounds [4 x i8], [4 x i8]* %6, i64 0, i64 0
  %68 = load i8, i8* %67, align 1
  %69 = sext i8 %68 to i32
  %70 = getelementptr inbounds [4 x i8], [4 x i8]* %6, i64 0, i64 1
  %71 = load i8, i8* %70, align 1
  %72 = sext i8 %71 to i32
  %73 = getelementptr inbounds [4 x i8], [4 x i8]* %6, i64 0, i64 2
  %74 = load i8, i8* %73, align 1
  %75 = sext i8 %74 to i32
  %76 = call i32 (i8*, ...) @printf(i8* getelementptr inbounds ([7 x i8], [7 x i8]* @.str.2, i64 0, i64 0), i32 %69, i32 %72, i32 %75)
  %77 = load i32, i32* %2, align 4
  %78 = add nsw i32 %77, 1
  store i32 %78, i32* %1, align 4
  br label %79

79:                                               ; preds = %91, %66
  %80 = load i32, i32* %1, align 4
  %81 = load i32, i32* %3, align 4
  %82 = sub nsw i32 %81, 1
  %83 = icmp sle i32 %80, %82
  br i1 %83, label %84, label %94

84:                                               ; preds = %79
  %85 = load i32, i32* %1, align 4
  %86 = sext i32 %85 to i64
  %87 = getelementptr inbounds [20 x i8], [20 x i8]* %5, i64 0, i64 %86
  %88 = load i8, i8* %87, align 1
  %89 = sext i8 %88 to i32
  %90 = call i32 (i8*, ...) @printf(i8* getelementptr inbounds ([3 x i8], [3 x i8]* @.str.1, i64 0, i64 0), i32 %89)
  br label %91

91:                                               ; preds = %84
  %92 = load i32, i32* %1, align 4
  %93 = add nsw i32 %92, 1
  store i32 %93, i32* %1, align 4
  br label %79

94:                                               ; preds = %79
  %95 = call i32 (i8*, ...) @printf(i8* getelementptr inbounds ([2 x i8], [2 x i8]* @.str.3, i64 0, i64 0))
  br label %7

96:                                               ; preds = %7
  ret void
}

declare dso_local i32 @__isoc99_scanf(i8*, ...) #1

; Function Attrs: nounwind readonly
declare dso_local i64 @strlen(i8*) #2

declare dso_local i32 @printf(i8*, ...) #1


!llvm.module.flags = !{!0}
!llvm.ident = !{!1}

!0 = !{i32 1, !"wchar_size", i32 4}
!1 = !{!"clang version 10.0.0-4ubuntu1 "}
